target datalayout = "e-m:e-p270:32:32-p271:32:32-p272:64:64-i64:64-i128:128-f80:128-n8:16:32:64-S128"
target triple = "x86_64-pc-linux-gnu"

%"class.cv::Mat" = type { i32, i32, i32, i32, ptr, ptr, ptr, ptr, ptr, ptr, %"struct.cv::MatSize", %"struct.cv::MatStep" }
%"struct.cv::MatSize" = type { ptr }
%"struct.cv::MatStep" = type { ptr, [2 x i64] }
%"class.cv::Scalar_" = type { %"class.cv::Vec" }
%"class.cv::Vec" = type { %"class.cv::Matx" }
%"class.cv::Matx" = type { [4 x double] }
%"class.std::__cxx11::basic_string" = type { %"struct.std::__cxx11::basic_string<char>::_Alloc_hider", i64, %union.anon }
%"struct.std::__cxx11::basic_string<char>::_Alloc_hider" = type { ptr }
%union.anon = type { i64, [8 x i8] }
%"class.std::allocator.14" = type { i8 }

@.str.1 = private unnamed_addr constant [127 x i8] c"generated/home/dtcxzyw/WorkSpace/Projects/compilers/llvm-opt-benchmark/bench/opencv/opencv/modules/calib3d/src/circlesgrid.cpp\00", align 1
@.str.25 = private unnamed_addr constant [22 x i8] c"dm.type() == CV_32SC1\00", align 1
@__func__._Z24computePredecessorMatrixRKN2cv3MatEiRS0_ = private unnamed_addr constant [25 x i8] c"computePredecessorMatrix\00", align 1

; Function Attrs: mustprogress nounwind uwtable
define linkonce_odr hidden void @_ZN2cv4MatxIdLi4ELi1EEC2Ev(ptr noundef nonnull align 8 dereferenceable(32) %0) unnamed_addr #5 comdat align 2 {
  %2 = alloca ptr, align 8
  %3 = alloca i32, align 4
  store ptr %0, ptr %2, align 8
  %4 = load ptr, ptr %2, align 8
  store i32 0, ptr %3, align 4
  br label %5

5:                                                ; preds = %13, %1
  %6 = load i32, ptr %3, align 4
  %7 = icmp slt i32 %6, 4
  br i1 %7, label %8, label %16

8:                                                ; preds = %5
  %9 = getelementptr inbounds %"class.cv::Matx", ptr %4, i32 0, i32 0
  %10 = load i32, ptr %3, align 4
  %11 = sext i32 %10 to i64
  %12 = getelementptr inbounds [4 x double], ptr %9, i64 0, i64 %11
  store double 0.000000e+00, ptr %12, align 8
  br label %13

13:                                               ; preds = %8
  %14 = load i32, ptr %3, align 4
  %15 = add nsw i32 %14, 1
  store i32 %15, ptr %3, align 4
  br label %5, !llvm.loop !102

16:                                               ; preds = %5
  ret void
}

; Function Attrs: mustprogress uwtable
define linkonce_odr hidden void @_ZN2cv3VecIdLi4EEC2Ev(ptr noundef nonnull align 8 dereferenceable(32) %0) unnamed_addr #6 comdat align 2 {
  %2 = alloca ptr, align 8
  store ptr %0, ptr %2, align 8
  %3 = load ptr, ptr %2, align 8
  call void @_ZN2cv4MatxIdLi4ELi1EEC2Ev(ptr noundef nonnull align 8 dereferenceable(32) %3)
  ret void
}

; Function Attrs: mustprogress nounwind uwtable
define linkonce_odr hidden noundef nonnull align 4 dereferenceable(4) ptr @_ZN2cv3Mat2atIiEERT_ii(ptr noundef nonnull align 8 dereferenceable(96) %0, i32 noundef %1, i32 noundef %2) #5 comdat align 2 {
  %4 = alloca ptr, align 8
  %5 = alloca i32, align 4
  %6 = alloca i32, align 4
  store ptr %0, ptr %4, align 8
  store i32 %1, ptr %5, align 4
  store i32 %2, ptr %6, align 4
  %7 = load ptr, ptr %4, align 8
  %8 = getelementptr inbounds %"class.cv::Mat", ptr %7, i32 0, i32 4
  %9 = load ptr, ptr %8, align 8
  %10 = getelementptr inbounds %"class.cv::Mat", ptr %7, i32 0, i32 11
  %11 = getelementptr inbounds %"struct.cv::MatStep", ptr %10, i32 0, i32 0
  %12 = load ptr, ptr %11, align 8
  %13 = getelementptr inbounds i64, ptr %12, i64 0
  %14 = load i64, ptr %13, align 8
  %15 = load i32, ptr %5, align 4
  %16 = sext i32 %15 to i64
  %17 = mul i64 %14, %16
  %18 = getelementptr inbounds i8, ptr %9, i64 %17
  %19 = load i32, ptr %6, align 4
  %20 = sext i32 %19 to i64
  %21 = getelementptr inbounds i32, ptr %18, i64 %20
  ret ptr %21
}

; Function Attrs: mustprogress nounwind uwtable
define linkonce_odr hidden noundef nonnull align 4 dereferenceable(4) ptr @_ZNK2cv3Mat2atIiEERKT_ii(ptr noundef nonnull align 8 dereferenceable(96) %0, i32 noundef %1, i32 noundef %2) #5 comdat align 2 {
  %4 = alloca ptr, align 8
  %5 = alloca i32, align 4
  %6 = alloca i32, align 4
  store ptr %0, ptr %4, align 8
  store i32 %1, ptr %5, align 4
  store i32 %2, ptr %6, align 4
  %7 = load ptr, ptr %4, align 8
  %8 = getelementptr inbounds %"class.cv::Mat", ptr %7, i32 0, i32 4
  %9 = load ptr, ptr %8, align 8
  %10 = getelementptr inbounds %"class.cv::Mat", ptr %7, i32 0, i32 11
  %11 = getelementptr inbounds %"struct.cv::MatStep", ptr %10, i32 0, i32 0
  %12 = load ptr, ptr %11, align 8
  %13 = getelementptr inbounds i64, ptr %12, i64 0
  %14 = load i64, ptr %13, align 8
  %15 = load i32, ptr %5, align 4
  %16 = sext i32 %15 to i64
  %17 = mul i64 %14, %16
  %18 = getelementptr inbounds i8, ptr %9, i64 %17
  %19 = load i32, ptr %6, align 4
  %20 = sext i32 %19 to i64
  %21 = getelementptr inbounds i32, ptr %18, i64 %20
  ret ptr %21
}

; Function Attrs: mustprogress uwtable
define linkonce_odr hidden void @_ZN2cv7Scalar_IdEC2Ed(ptr noundef nonnull align 8 dereferenceable(32) %0, double noundef %1) unnamed_addr #6 comdat align 2 {
  %3 = alloca ptr, align 8
  %4 = alloca double, align 8
  store ptr %0, ptr %3, align 8
  store double %1, ptr %4, align 8
  %5 = load ptr, ptr %3, align 8
  call void @_ZN2cv3VecIdLi4EEC2Ev(ptr noundef nonnull align 8 dereferenceable(32) %5)
  %6 = load double, ptr %4, align 8
  %7 = getelementptr inbounds %"class.cv::Matx", ptr %5, i32 0, i32 0
  %8 = getelementptr inbounds [4 x double], ptr %7, i64 0, i64 0
  store double %6, ptr %8, align 8
  %9 = getelementptr inbounds %"class.cv::Matx", ptr %5, i32 0, i32 0
  %10 = getelementptr inbounds [4 x double], ptr %9, i64 0, i64 3
  store double 0.000000e+00, ptr %10, align 8
  %11 = getelementptr inbounds %"class.cv::Matx", ptr %5, i32 0, i32 0
  %12 = getelementptr inbounds [4 x double], ptr %11, i64 0, i64 2
  store double 0.000000e+00, ptr %12, align 8
  %13 = getelementptr inbounds %"class.cv::Matx", ptr %5, i32 0, i32 0
  %14 = getelementptr inbounds [4 x double], ptr %13, i64 0, i64 1
  store double 0.000000e+00, ptr %14, align 8
  ret void
}

; Function Attrs: mustprogress nounwind uwtable
define linkonce_odr hidden noundef i32 @_ZNK2cv3Mat4typeEv(ptr noundef nonnull align 8 dereferenceable(96) %0) #5 comdat align 2 {
  %2 = alloca ptr, align 8
  store ptr %0, ptr %2, align 8
  %3 = load ptr, ptr %2, align 8
  %4 = getelementptr inbounds %"class.cv::Mat", ptr %3, i32 0, i32 0
  %5 = load i32, ptr %4, align 8
  %6 = and i32 %5, 4095
  ret i32 %6
}

; Function Attrs: mustprogress uwtable
define hidden void @_Z24computePredecessorMatrixRKN2cv3MatEiRS0_(ptr noundef nonnull align 8 dereferenceable(96) %0, i32 noundef %1, ptr noundef nonnull align 8 dereferenceable(96) %2) #6 personality ptr @__gxx_personality_v0 {
  %4 = alloca ptr, align 8
  %5 = alloca i32, align 4
  %6 = alloca ptr, align 8
  %7 = alloca %"class.std::__cxx11::basic_string", align 8
  %8 = alloca %"class.std::allocator.14", align 1
  %9 = alloca ptr, align 8
  %10 = alloca i32, align 4
  %11 = alloca %"class.cv::Scalar_", align 8
  %12 = alloca i32, align 4
  %13 = alloca i32, align 4
  %14 = alloca i32, align 4
  %15 = alloca i32, align 4
  store ptr %0, ptr %4, align 8
  store i32 %1, ptr %5, align 4
  store ptr %2, ptr %6, align 8
  br label %16

16:                                               ; preds = %3
  %17 = load ptr, ptr %4, align 8
  %18 = call noundef i32 @_ZNK2cv3Mat4typeEv(ptr noundef nonnull align 8 dereferenceable(96) %17)
  %19 = icmp eq i32 %18, 4
  br i1 %19, label %20, label %21

20:                                               ; preds = %16
  br label %33

21:                                               ; preds = %16
  call void @_ZNSaIcEC1Ev(ptr noundef nonnull align 1 dereferenceable(1) %8) #3
  invoke void @_ZNSt7__cxx1112basic_stringIcSt11char_traitsIcESaIcEEC1EPKcRKS3_(ptr noundef nonnull align 8 dereferenceable(32) %7, ptr noundef @.str.25, ptr noundef nonnull align 1 dereferenceable(1) %8)
          to label %22 unwind label %24

22:                                               ; preds = %21
  invoke void @_ZN2cv5errorEiRKNSt7__cxx1112basic_stringIcSt11char_traitsIcESaIcEEEPKcS9_i(i32 noundef -215, ptr noundef nonnull align 8 dereferenceable(32) %7, ptr noundef @__func__._Z24computePredecessorMatrixRKN2cv3MatEiRS0_, ptr noundef @.str.1, i32 noundef 1250) #21
          to label %23 unwind label %28

23:                                               ; preds = %22
  unreachable

24:                                               ; preds = %21
  %25 = landingpad { ptr, i32 }
          cleanup
  %26 = extractvalue { ptr, i32 } %25, 0
  store ptr %26, ptr %9, align 8
  %27 = extractvalue { ptr, i32 } %25, 1
  store i32 %27, ptr %10, align 4
  br label %32

28:                                               ; preds = %22
  %29 = landingpad { ptr, i32 }
          cleanup
  %30 = extractvalue { ptr, i32 } %29, 0
  store ptr %30, ptr %9, align 8
  %31 = extractvalue { ptr, i32 } %29, 1
  store i32 %31, ptr %10, align 4
  call void @_ZNSt7__cxx1112basic_stringIcSt11char_traitsIcESaIcEED1Ev(ptr noundef nonnull align 8 dereferenceable(32) %7) #3
  br label %32

32:                                               ; preds = %28, %24
  call void @_ZNSaIcED1Ev(ptr noundef nonnull align 1 dereferenceable(1) %8) #3
  br label %98

33:                                               ; preds = %20
  br label %34

34:                                               ; preds = %33
  %35 = load ptr, ptr %6, align 8
  %36 = load i32, ptr %5, align 4
  %37 = load i32, ptr %5, align 4
  call void @_ZN2cv3Mat6createEiii(ptr noundef nonnull align 8 dereferenceable(96) %35, i32 noundef %36, i32 noundef %37, i32 noundef 4)
  call void @_ZN2cv7Scalar_IdEC2Ed(ptr noundef nonnull align 8 dereferenceable(32) %11, double noundef -1.000000e+00)
  %38 = load ptr, ptr %6, align 8
  %39 = call noundef nonnull align 8 dereferenceable(96) ptr @_ZN2cv3MataSERKNS_7Scalar_IdEE(ptr noundef nonnull align 8 dereferenceable(96) %38, ptr noundef nonnull align 8 dereferenceable(32) %11)
  store i32 0, ptr %12, align 4
  br label %40

40:                                               ; preds = %94, %34
  %41 = load i32, ptr %12, align 4
  %42 = load ptr, ptr %6, align 8
  %43 = getelementptr inbounds %"class.cv::Mat", ptr %42, i32 0, i32 2
  %44 = load i32, ptr %43, align 8
  %45 = icmp slt i32 %41, %44
  br i1 %45, label %46, label %97

46:                                               ; preds = %40
  store i32 0, ptr %13, align 4
  br label %47

47:                                               ; preds = %90, %46
  %48 = load i32, ptr %13, align 4
  %49 = load ptr, ptr %6, align 8
  %50 = getelementptr inbounds %"class.cv::Mat", ptr %49, i32 0, i32 3
  %51 = load i32, ptr %50, align 4
  %52 = icmp slt i32 %48, %51
  br i1 %52, label %53, label %93

53:                                               ; preds = %47
  %54 = load ptr, ptr %4, align 8
  %55 = load i32, ptr %12, align 4
  %56 = load i32, ptr %13, align 4
  %57 = call noundef nonnull align 4 dereferenceable(4) ptr @_ZNK2cv3Mat2atIiEERKT_ii(ptr noundef nonnull align 8 dereferenceable(96) %54, i32 noundef %55, i32 noundef %56)
  %58 = load i32, ptr %57, align 4
  store i32 %58, ptr %14, align 4
  store i32 0, ptr %15, align 4
  br label %59

59:                                               ; preds = %86, %53
  %60 = load i32, ptr %15, align 4
  %61 = load i32, ptr %5, align 4
  %62 = icmp slt i32 %60, %61
  br i1 %62, label %63, label %89

63:                                               ; preds = %59
  %64 = load ptr, ptr %4, align 8
  %65 = load i32, ptr %12, align 4
  %66 = load i32, ptr %15, align 4
  %67 = call noundef nonnull align 4 dereferenceable(4) ptr @_ZNK2cv3Mat2atIiEERKT_ii(ptr noundef nonnull align 8 dereferenceable(96) %64, i32 noundef %65, i32 noundef %66)
  %68 = load i32, ptr %67, align 4
  %69 = load i32, ptr %14, align 4
  %70 = sub nsw i32 %69, 1
  %71 = icmp eq i32 %68, %70
  br i1 %71, label %72, label %85

72:                                               ; preds = %63
  %73 = load ptr, ptr %4, align 8
  %74 = load i32, ptr %15, align 4
  %75 = load i32, ptr %13, align 4
  %76 = call noundef nonnull align 4 dereferenceable(4) ptr @_ZNK2cv3Mat2atIiEERKT_ii(ptr noundef nonnull align 8 dereferenceable(96) %73, i32 noundef %74, i32 noundef %75)
  %77 = load i32, ptr %76, align 4
  %78 = icmp eq i32 %77, 1
  br i1 %78, label %79, label %85

79:                                               ; preds = %72
  %80 = load i32, ptr %15, align 4
  %81 = load ptr, ptr %6, align 8
  %82 = load i32, ptr %12, align 4
  %83 = load i32, ptr %13, align 4
  %84 = call noundef nonnull align 4 dereferenceable(4) ptr @_ZN2cv3Mat2atIiEERT_ii(ptr noundef nonnull align 8 dereferenceable(96) %81, i32 noundef %82, i32 noundef %83)
  store i32 %80, ptr %84, align 4
  br label %89

85:                                               ; preds = %72, %63
  br label %86

86:                                               ; preds = %85
  %87 = load i32, ptr %15, align 4
  %88 = add nsw i32 %87, 1
  store i32 %88, ptr %15, align 4
  br label %59, !llvm.loop !72

89:                                               ; preds = %79, %59
  br label %90

90:                                               ; preds = %89
  %91 = load i32, ptr %13, align 4
  %92 = add nsw i32 %91, 1
  store i32 %92, ptr %13, align 4
  br label %47, !llvm.loop !73

93:                                               ; preds = %47
  br label %94

94:                                               ; preds = %93
  %95 = load i32, ptr %12, align 4
  %96 = add nsw i32 %95, 1
  store i32 %96, ptr %12, align 4
  br label %40, !llvm.loop !74

97:                                               ; preds = %40
  ret void

98:                                               ; preds = %32
  %99 = load ptr, ptr %9, align 8
  %100 = load i32, ptr %10, align 4
  %101 = insertvalue { ptr, i32 } poison, ptr %99, 0
  %102 = insertvalue { ptr, i32 } %101, i32 %100, 1
  resume { ptr, i32 } %102
}