; Function Attrs: mustprogress uwtable
define hidden void @_Z24computePredecessorMatrixRKN2cv3MatEiRS0_(ptr nocapture noundef nonnull readonly align 8 dereferenceable(96) %0, i32 noundef %1, ptr noundef nonnull align 8 dereferenceable(96) %2) local_unnamed_addr #4 personality ptr @__gxx_personality_v0 {
  %4 = alloca %"class.std::__cxx11::basic_string", align 8
  %5 = alloca %"class.std::allocator.14", align 1
  %6 = alloca %"class.cv::Scalar_", align 8
  %7 = load i32, ptr %0, align 8
  %8 = and i32 %7, 4095
  %9 = icmp eq i32 %8, 4
  br i1 %9, label %18, label %10

10:                                               ; preds = %3
  call void @_ZNSaIcEC1Ev(ptr noundef nonnull align 1 dereferenceable(1) %5) #29
  invoke void @_ZNSt7__cxx1112basic_stringIcSt11char_traitsIcESaIcEEC1EPKcRKS3_(ptr noundef nonnull align 8 dereferenceable(32) %4, ptr noundef nonnull @.str.25, ptr noundef nonnull align 1 dereferenceable(1) %5)
          to label %11 unwind label %13

11:                                               ; preds = %10
  invoke void @_ZN2cv5errorEiRKNSt7__cxx1112basic_stringIcSt11char_traitsIcESaIcEEEPKcS9_i(i32 noundef -215, ptr noundef nonnull align 8 dereferenceable(32) %4, ptr noundef nonnull @__func__._Z24computePredecessorMatrixRKN2cv3MatEiRS0_, ptr noundef nonnull @.str.1, i32 noundef 1250) #27
          to label %12 unwind label %15

12:                                               ; preds = %11
  unreachable

13:                                               ; preds = %10
  %14 = landingpad { ptr, i32 }
          cleanup
  br label %17

15:                                               ; preds = %11
  %16 = landingpad { ptr, i32 }
          cleanup
  call void @_ZNSt7__cxx1112basic_stringIcSt11char_traitsIcESaIcEED1Ev(ptr noundef nonnull align 8 dereferenceable(32) %4) #29
  br label %17

17:                                               ; preds = %15, %13
  %.pn = phi { ptr, i32 } [ %16, %15 ], [ %14, %13 ]
  call void @_ZNSaIcED1Ev(ptr noundef nonnull align 1 dereferenceable(1) %5) #29
  resume { ptr, i32 } %.pn

18:                                               ; preds = %3
  tail call void @_ZN2cv3Mat6createEiii(ptr noundef nonnull align 8 dereferenceable(96) %2, i32 noundef %1, i32 noundef %1, i32 noundef 4)
  store double -1.000000e+00, ptr %6, align 8
  %19 = getelementptr inbounds i8, ptr %6, i64 8
  call void @llvm.memset.p0.i64(ptr noundef nonnull align 8 dereferenceable(24) %19, i8 0, i64 24, i1 false)
  %20 = call noundef nonnull align 8 dereferenceable(96) ptr @_ZN2cv3MataSERKNS_7Scalar_IdEE(ptr noundef nonnull align 8 dereferenceable(96) %2, ptr noundef nonnull align 8 dereferenceable(32) %6)
  %21 = getelementptr inbounds i8, ptr %2, i64 8
  %22 = load i32, ptr %21, align 8
  %23 = icmp sgt i32 %22, 0
  br i1 %23, label %.preheader.lr.ph, label %._crit_edge39

.preheader.lr.ph:                                 ; preds = %18
  %24 = getelementptr inbounds i8, ptr %2, i64 12
  %25 = getelementptr inbounds i8, ptr %0, i64 16
  %26 = getelementptr inbounds i8, ptr %0, i64 72
  %27 = icmp slt i32 %1, 1
  %28 = getelementptr inbounds i8, ptr %2, i64 16
  %29 = getelementptr inbounds i8, ptr %2, i64 72
  %30 = load i32, ptr %24, align 4
  %31 = icmp sgt i32 %30, 0
  br i1 %31, label %.preheader.preheader, label %._crit_edge39

.preheader.preheader:                             ; preds = %.preheader.lr.ph
  %wide.trip.count = zext nneg i32 %1 to i64
  br label %.preheader

.preheader:                                       ; preds = %.preheader.preheader, %._crit_edge
  %32 = phi i32 [ %22, %.preheader.preheader ], [ %65, %._crit_edge ]
  %33 = phi i32 [ %30, %.preheader.preheader ], [ %66, %._crit_edge ]
  %34 = phi i32 [ %30, %.preheader.preheader ], [ %67, %._crit_edge ]
  %indvars.iv47 = phi i64 [ 0, %.preheader.preheader ], [ %indvars.iv.next48, %._crit_edge ]
  %35 = icmp slt i32 %34, 1
  %brmerge = or i1 %35, %27
  br i1 %brmerge, label %._crit_edge, label %.lr.ph.us

.lr.ph.us:                                        ; preds = %.preheader, %..loopexit_crit_edge.us
  %36 = phi i32 [ %62, %..loopexit_crit_edge.us ], [ %33, %.preheader ]
  %indvars.iv44 = phi i64 [ %indvars.iv.next45, %..loopexit_crit_edge.us ], [ 0, %.preheader ]
  %37 = load ptr, ptr %25, align 8
  %38 = load ptr, ptr %26, align 8
  %39 = load i64, ptr %38, align 8
  %40 = mul i64 %39, %indvars.iv47
  %41 = getelementptr inbounds i8, ptr %37, i64 %40
  %42 = getelementptr inbounds i32, ptr %41, i64 %indvars.iv44
  %43 = load i32, ptr %42, align 4
  %invariant.gep.us = getelementptr i32, ptr %37, i64 %indvars.iv44
  %44 = add nsw i32 %43, -1
  br label %45

45:                                               ; preds = %.lr.ph.us, %53
  %indvars.iv = phi i64 [ 0, %.lr.ph.us ], [ %indvars.iv.next, %53 ]
  %46 = getelementptr inbounds i32, ptr %41, i64 %indvars.iv
  %47 = load i32, ptr %46, align 4
  %48 = icmp eq i32 %47, %44
  br i1 %48, label %49, label %53

49:                                               ; preds = %45
  %50 = mul i64 %39, %indvars.iv
  %gep.us = getelementptr i8, ptr %invariant.gep.us, i64 %50
  %51 = load i32, ptr %gep.us, align 4
  %52 = icmp eq i32 %51, 1
  br i1 %52, label %54, label %53

53:                                               ; preds = %49, %45
  %indvars.iv.next = add nuw nsw i64 %indvars.iv, 1
  %exitcond.not = icmp eq i64 %indvars.iv.next, %wide.trip.count
  br i1 %exitcond.not, label %..loopexit_crit_edge.us, label %45, !llvm.loop !251

54:                                               ; preds = %49
  %55 = trunc nuw nsw i64 %indvars.iv to i32
  %56 = load ptr, ptr %28, align 8
  %57 = load ptr, ptr %29, align 8
  %58 = load i64, ptr %57, align 8
  %59 = mul i64 %58, %indvars.iv47
  %60 = getelementptr inbounds i8, ptr %56, i64 %59
  %61 = getelementptr inbounds i32, ptr %60, i64 %indvars.iv44
  store i32 %55, ptr %61, align 4
  %.pre = load i32, ptr %24, align 4
  br label %..loopexit_crit_edge.us

..loopexit_crit_edge.us:                          ; preds = %53, %54
  %62 = phi i32 [ %.pre, %54 ], [ %36, %53 ]
  %indvars.iv.next45 = add nuw nsw i64 %indvars.iv44, 1
  %63 = sext i32 %62 to i64
  %64 = icmp slt i64 %indvars.iv.next45, %63
  br i1 %64, label %.lr.ph.us, label %._crit_edge.loopexit, !llvm.loop !252

._crit_edge.loopexit:                             ; preds = %..loopexit_crit_edge.us
  %.pre50 = load i32, ptr %21, align 8
  br label %._crit_edge

._crit_edge:                                      ; preds = %.preheader, %._crit_edge.loopexit
  %65 = phi i32 [ %.pre50, %._crit_edge.loopexit ], [ %32, %.preheader ]
  %66 = phi i32 [ %62, %._crit_edge.loopexit ], [ %33, %.preheader ]
  %67 = phi i32 [ %62, %._crit_edge.loopexit ], [ %34, %.preheader ]
  %indvars.iv.next48 = add nuw nsw i64 %indvars.iv47, 1
  %68 = sext i32 %65 to i64
  %69 = icmp slt i64 %indvars.iv.next48, %68
  br i1 %69, label %.preheader, label %._crit_edge39, !llvm.loop !253

._crit_edge39:                                    ; preds = %._crit_edge, %.preheader.lr.ph, %18
  ret void
}